target datalayout = "e-m:e-p270:32:32-p271:32:32-p272:64:64-i64:64-i128:128-f80:128-n8:16:32:64-S128"
target triple = "x86_64-pc-linux-gnu"

%struct.ID3v2EncContext = type { i32, i64, i32 }

; Function Attrs: nounwind uwtable
define internal void @id3v2_put_size(ptr noundef %0, i32 noundef %1) #0 {
  %3 = alloca ptr, align 8
  %4 = alloca i32, align 4
  store ptr %0, ptr %3, align 8, !tbaa !9
  store i32 %1, ptr %4, align 4, !tbaa !11
  %5 = load ptr, ptr %3, align 8, !tbaa !9
  %6 = load i32, ptr %4, align 4, !tbaa !11
  %7 = ashr i32 %6, 21
  %8 = and i32 %7, 127
  call void @avio_w8(ptr noundef %5, i32 noundef %8)
  %9 = load ptr, ptr %3, align 8, !tbaa !9
  %10 = load i32, ptr %4, align 4, !tbaa !11
  %11 = ashr i32 %10, 14
  %12 = and i32 %11, 127
  call void @avio_w8(ptr noundef %9, i32 noundef %12)
  %13 = load ptr, ptr %3, align 8, !tbaa !9
  %14 = load i32, ptr %4, align 4, !tbaa !11
  %15 = ashr i32 %14, 7
  %16 = and i32 %15, 127
  call void @avio_w8(ptr noundef %13, i32 noundef %16)
  %17 = load ptr, ptr %3, align 8, !tbaa !9
  %18 = load i32, ptr %4, align 4, !tbaa !11
  %19 = and i32 %18, 127
  call void @avio_w8(ptr noundef %17, i32 noundef %19)
  ret void
}

; Function Attrs: alwaysinline nounwind uwtable
define internal i64 @avio_tell(ptr noundef %0) #2 {
  %2 = alloca ptr, align 8
  store ptr %0, ptr %2, align 8, !tbaa !9
  %3 = load ptr, ptr %2, align 8, !tbaa !9
  %4 = call i64 @avio_seek(ptr noundef %3, i64 noundef 0, i32 noundef 1)
  ret i64 %4
}

; Function Attrs: alwaysinline nounwind willreturn memory(none) uwtable
define internal i32 @av_clip_c(i32 noundef %0, i32 noundef %1, i32 noundef %2) #4 {
  %4 = alloca i32, align 4
  %5 = alloca i32, align 4
  %6 = alloca i32, align 4
  %7 = alloca i32, align 4
  store i32 %0, ptr %5, align 4, !tbaa !11
  store i32 %1, ptr %6, align 4, !tbaa !11
  store i32 %2, ptr %7, align 4, !tbaa !11
  %8 = load i32, ptr %5, align 4, !tbaa !11
  %9 = load i32, ptr %6, align 4, !tbaa !11
  %10 = icmp slt i32 %8, %9
  br i1 %10, label %11, label %13

11:                                               ; preds = %3
  %12 = load i32, ptr %6, align 4, !tbaa !11
  store i32 %12, ptr %4, align 4
  br label %21

13:                                               ; preds = %3
  %14 = load i32, ptr %5, align 4, !tbaa !11
  %15 = load i32, ptr %7, align 4, !tbaa !11
  %16 = icmp sgt i32 %14, %15
  br i1 %16, label %17, label %19

17:                                               ; preds = %13
  %18 = load i32, ptr %7, align 4, !tbaa !11
  store i32 %18, ptr %4, align 4
  br label %21

19:                                               ; preds = %13
  %20 = load i32, ptr %5, align 4, !tbaa !11
  store i32 %20, ptr %4, align 4
  br label %21

21:                                               ; preds = %19, %17, %11
  %22 = load i32, ptr %4, align 4
  ret i32 %22
}

; Function Attrs: nounwind uwtable
define void @ff_id3v2_finish(ptr noundef %0, ptr noundef %1, i32 noundef %2) #0 {
  %4 = alloca ptr, align 8
  %5 = alloca ptr, align 8
  %6 = alloca i32, align 4
  %7 = alloca i64, align 8
  store ptr %0, ptr %4, align 8, !tbaa !4
  store ptr %1, ptr %5, align 8, !tbaa !9
  store i32 %2, ptr %6, align 4, !tbaa !11
  call void @llvm.lifetime.start.p0(i64 8, ptr %7) #11
  %8 = load i32, ptr %6, align 4, !tbaa !11
  %9 = icmp slt i32 %8, 0
  br i1 %9, label %10, label %11

10:                                               ; preds = %3
  store i32 10, ptr %6, align 4, !tbaa !11
  br label %11

11:                                               ; preds = %10, %3
  %12 = load i32, ptr %6, align 4, !tbaa !11
  %13 = load ptr, ptr %4, align 8, !tbaa !4
  %14 = getelementptr inbounds nuw %struct.ID3v2EncContext, ptr %13, i32 0, i32 2
  %15 = load i32, ptr %14, align 8, !tbaa !43
  %16 = sub nsw i32 268435455, %15
  %17 = call i32 @av_clip_c(i32 noundef %12, i32 noundef 10, i32 noundef %16) #12
  store i32 %17, ptr %6, align 4, !tbaa !11
  %18 = load ptr, ptr %5, align 8, !tbaa !9
  %19 = load i32, ptr %6, align 4, !tbaa !11
  %20 = sext i32 %19 to i64
  call void @ffio_fill(ptr noundef %18, i32 noundef 0, i64 noundef %20)
  %21 = load i32, ptr %6, align 4, !tbaa !11
  %22 = load ptr, ptr %4, align 8, !tbaa !4
  %23 = getelementptr inbounds nuw %struct.ID3v2EncContext, ptr %22, i32 0, i32 2
  %24 = load i32, ptr %23, align 8, !tbaa !43
  %25 = add nsw i32 %24, %21
  store i32 %25, ptr %23, align 8, !tbaa !43
  %26 = load ptr, ptr %5, align 8, !tbaa !9
  %27 = call i64 @avio_tell(ptr noundef %26)
  store i64 %27, ptr %7, align 8, !tbaa !83
  %28 = load ptr, ptr %5, align 8, !tbaa !9
  %29 = load ptr, ptr %4, align 8, !tbaa !4
  %30 = getelementptr inbounds nuw %struct.ID3v2EncContext, ptr %29, i32 0, i32 1
  %31 = load i64, ptr %30, align 8, !tbaa !19
  %32 = call i64 @avio_seek(ptr noundef %28, i64 noundef %31, i32 noundef 0)
  %33 = load ptr, ptr %5, align 8, !tbaa !9
  %34 = load ptr, ptr %4, align 8, !tbaa !4
  %35 = getelementptr inbounds nuw %struct.ID3v2EncContext, ptr %34, i32 0, i32 2
  %36 = load i32, ptr %35, align 8, !tbaa !43
  call void @id3v2_put_size(ptr noundef %33, i32 noundef %36)
  %37 = load ptr, ptr %5, align 8, !tbaa !9
  %38 = load i64, ptr %7, align 8, !tbaa !83
  %39 = call i64 @avio_seek(ptr noundef %37, i64 noundef %38, i32 noundef 0)
  call void @llvm.lifetime.end.p0(i64 8, ptr %7) #11
  ret void
}