; Function Attrs: nounwind uwtable
define void @ff_id3v2_finish(ptr noundef captures(none) %0, ptr noundef %1, i32 noundef %2) local_unnamed_addr #0 {
  %4 = icmp slt i32 %2, 0
  %spec.store.select = select i1 %4, i32 10, i32 %2
  %5 = getelementptr inbounds nuw i8, ptr %0, i64 16
  %6 = load i32, ptr %5, align 8, !tbaa !32
  %7 = sub nsw i32 268435455, %6
  %8 = icmp samesign ult i32 %spec.store.select, 10
  %..i = tail call i32 @llvm.smin.i32(i32 %spec.store.select, i32 %7)
  %.0.i = select i1 %8, i32 10, i32 %..i
  %9 = sext i32 %.0.i to i64
  tail call void @ffio_fill(ptr noundef %1, i32 noundef 0, i64 noundef %9) #9
  %10 = load i32, ptr %5, align 8, !tbaa !32
  %11 = add nsw i32 %.0.i, %10
  store i32 %11, ptr %5, align 8, !tbaa !32
  %12 = tail call i64 @avio_seek(ptr noundef %1, i64 noundef 0, i32 noundef 1) #9
  %13 = getelementptr inbounds nuw i8, ptr %0, i64 8
  %14 = load i64, ptr %13, align 8, !tbaa !11
  %15 = tail call i64 @avio_seek(ptr noundef %1, i64 noundef %14, i32 noundef 0) #9
  %16 = load i32, ptr %5, align 8, !tbaa !32
  %17 = lshr i32 %16, 21
  %18 = and i32 %17, 127
  tail call void @avio_w8(ptr noundef %1, i32 noundef %18) #9
  %19 = lshr i32 %16, 14
  %20 = and i32 %19, 127
  tail call void @avio_w8(ptr noundef %1, i32 noundef %20) #9
  %21 = lshr i32 %16, 7
  %22 = and i32 %21, 127
  tail call void @avio_w8(ptr noundef %1, i32 noundef %22) #9
  %23 = and i32 %16, 127
  tail call void @avio_w8(ptr noundef %1, i32 noundef %23) #9
  %24 = tail call i64 @avio_seek(ptr noundef %1, i64 noundef %12, i32 noundef 0) #9
  ret void
}